target datalayout = "e-m:e-p270:32:32-p271:32:32-p272:64:64-i64:64-i128:128-f80:128-n8:16:32:64-S128"
target triple = "x86_64-pc-linux-gnu"

%struct._e_prefs = type { ptr, i32, %struct.color_t, %struct.color_t, %struct.color_t, %struct.color_t, %struct.color_t, %struct.color_t, %struct.color_t, i8, i32, ptr, i32, %struct.color_t, %struct.color_t, i32, %struct.color_t, %struct.color_t, i32, %struct.color_t, %struct.color_t, %struct.color_t, %struct.color_t, ptr, ptr, i8, i8, i8, i32, i32, i32, ptr, i32, ptr, i8, i8, i8, ptr, ptr, ptr, i32, i32, i32, i32, i8, i32, i32, i32, i32, i32, ptr, i8, i8, i8, i8, i8, ptr, ptr, ptr, ptr, ptr, ptr, ptr, ptr, ptr, i8, i8, i8, i8, i32, i8, i8, i8, ptr, i32, i8, i8, i32, i8, i8, i8, i32, i8, i32, i8, i8, i8, i32, i32, i32, ptr, i8, i8, i8, i8, i8, i8, i32, i32, i8, i8, i8, i8, i32, i32, i32, i32, i8, i8, i32, i8, i8, i32, i32, i8, i8, i8, i32, i8, i8, i8 }
%struct.color_t = type { i16, i16, i16 }

@_loaded_interfaces = internal global ptr null, align 8
@prefs = external global %struct._e_prefs, align 8

; Function Attrs: null_pointer_is_valid sspstrong uwtable
define internal ptr @extcap_ensure_interface(ptr noundef %0, i1 noundef zeroext %1) #0 {
  %3 = alloca ptr, align 8
  %4 = alloca ptr, align 8
  %5 = alloca i8, align 1
  %6 = alloca ptr, align 8
  %7 = alloca i32, align 4
  %8 = alloca i64, align 8
  %9 = alloca i64, align 8
  %10 = alloca ptr, align 8
  %11 = alloca ptr, align 8
  store ptr %0, ptr %4, align 8
  %12 = zext i1 %1 to i8
  store i8 %12, ptr %5, align 1
  call void @llvm.lifetime.start.p0(i64 8, ptr %6) #9
  store ptr null, ptr %6, align 8
  %13 = load i8, ptr getelementptr inbounds nuw (%struct._e_prefs, ptr @prefs, i32 0, i32 71), align 1, !range !9, !noundef !10
  %14 = trunc i8 %13 to i1
  br i1 %14, label %15, label %16

15:                                               ; preds = %2
  store ptr null, ptr %3, align 8
  store i32 1, ptr %7, align 4
  br label %78

16:                                               ; preds = %2
  %17 = load ptr, ptr %4, align 8
  %18 = icmp ne ptr %17, null
  br i1 %18, label %21, label %19

19:                                               ; preds = %16
  %20 = load ptr, ptr %6, align 8
  store ptr %20, ptr %3, align 8
  store i32 1, ptr %7, align 4
  br label %78

21:                                               ; preds = %16
  %22 = load ptr, ptr @_loaded_interfaces, align 8
  %23 = icmp ne ptr %22, null
  br i1 %23, label %26, label %24

24:                                               ; preds = %21
  %25 = call ptr @g_hash_table_new_full(ptr noundef @g_str_hash, ptr noundef @g_str_equal, ptr noundef @g_free, ptr noundef @extcap_free_interface)
  store ptr %25, ptr @_loaded_interfaces, align 8
  br label %26

26:                                               ; preds = %24, %21
  %27 = load ptr, ptr @_loaded_interfaces, align 8
  %28 = load ptr, ptr %4, align 8
  %29 = call ptr @g_hash_table_lookup(ptr noundef %27, ptr noundef %28)
  store ptr %29, ptr %6, align 8
  %30 = load ptr, ptr %6, align 8
  %31 = icmp ne ptr %30, null
  br i1 %31, label %32, label %33

32:                                               ; preds = %26
  store ptr null, ptr %3, align 8
  store i32 1, ptr %7, align 4
  br label %78

33:                                               ; preds = %26
  %34 = load ptr, ptr %6, align 8
  %35 = icmp ne ptr %34, null
  br i1 %35, label %76, label %36

36:                                               ; preds = %33
  %37 = load i8, ptr %5, align 1, !range !9, !noundef !10
  %38 = trunc i8 %37 to i1
  br i1 %38, label %39, label %76

39:                                               ; preds = %36
  %40 = load ptr, ptr @_loaded_interfaces, align 8
  %41 = load ptr, ptr %4, align 8
  %42 = call noalias ptr @g_strdup(ptr noundef %41)
  call void @llvm.lifetime.start.p0(i64 8, ptr %8) #9
  store i64 1, ptr %8, align 8
  call void @llvm.lifetime.start.p0(i64 8, ptr %9) #9
  store i64 40, ptr %9, align 8
  call void @llvm.lifetime.start.p0(i64 8, ptr %10) #9
  %43 = load i64, ptr %9, align 8
  %44 = icmp eq i64 %43, 1
  br i1 %44, label %45, label %48

45:                                               ; preds = %39
  %46 = load i64, ptr %8, align 8
  %47 = call noalias ptr @g_malloc0(i64 noundef %46) #10
  store ptr %47, ptr %10, align 8
  br label %69

48:                                               ; preds = %39
  %49 = load i64, ptr %8, align 8
  %50 = call i1 @llvm.is.constant.i64(i64 %49)
  br i1 %50, label %51, label %64

51:                                               ; preds = %48
  %52 = load i64, ptr %9, align 8
  %53 = icmp eq i64 %52, 0
  br i1 %53, label %59, label %54

54:                                               ; preds = %51
  %55 = load i64, ptr %8, align 8
  %56 = load i64, ptr %9, align 8
  %57 = udiv i64 -1, %56
  %58 = icmp ule i64 %55, %57
  br i1 %58, label %59, label %64

59:                                               ; preds = %54, %51
  %60 = load i64, ptr %8, align 8
  %61 = load i64, ptr %9, align 8
  %62 = mul i64 %60, %61
  %63 = call noalias ptr @g_malloc0(i64 noundef %62) #10
  store ptr %63, ptr %10, align 8
  br label %68

64:                                               ; preds = %54, %48
  %65 = load i64, ptr %8, align 8
  %66 = load i64, ptr %9, align 8
  %67 = call noalias ptr @g_malloc0_n(i64 noundef %65, i64 noundef %66) #11
  store ptr %67, ptr %10, align 8
  br label %68

68:                                               ; preds = %64, %59
  br label %69

69:                                               ; preds = %68, %45
  %70 = load ptr, ptr %10, align 8
  store ptr %70, ptr %11, align 8
  call void @llvm.lifetime.end.p0(i64 8, ptr %10) #9
  call void @llvm.lifetime.end.p0(i64 8, ptr %9) #9
  call void @llvm.lifetime.end.p0(i64 8, ptr %8) #9
  %71 = load ptr, ptr %11, align 8
  %72 = call i32 @g_hash_table_insert(ptr noundef %40, ptr noundef %42, ptr noundef %71)
  %73 = load ptr, ptr @_loaded_interfaces, align 8
  %74 = load ptr, ptr %4, align 8
  %75 = call ptr @g_hash_table_lookup(ptr noundef %73, ptr noundef %74)
  store ptr %75, ptr %6, align 8
  br label %76

76:                                               ; preds = %69, %36, %33
  %77 = load ptr, ptr %6, align 8
  store ptr %77, ptr %3, align 8
  store i32 1, ptr %7, align 4
  br label %78

78:                                               ; preds = %76, %32, %19, %15
  call void @llvm.lifetime.end.p0(i64 8, ptr %6) #9
  %79 = load ptr, ptr %3, align 8
  ret ptr %79
}

; Function Attrs: null_pointer_is_valid sspstrong uwtable
define hidden ptr @extcap_get_tool_info(ptr noundef %0) #0 {
  %2 = alloca ptr, align 8
  store ptr %0, ptr %2, align 8
  call void @extcap_ensure_all_interfaces_loaded()
  %3 = load ptr, ptr %2, align 8
  %4 = call ptr @extcap_ensure_interface(ptr noundef %3, i1 noundef zeroext false)
  ret ptr %4
}