; Function Attrs: null_pointer_is_valid sspstrong uwtable
define hidden noalias noundef ptr @extcap_get_tool_info(ptr noundef %0) local_unnamed_addr #0 {
  tail call fastcc void @extcap_ensure_all_interfaces_loaded()
  %2 = load i8, ptr getelementptr inbounds nuw (i8, ptr @prefs, i64 361), align 1, !range !6, !noundef !7
  %3 = trunc nuw i8 %2 to i1
  %.not.i = icmp eq ptr %0, null
  %or.cond.i = or i1 %.not.i, %3
  br i1 %or.cond.i, label %extcap_ensure_interface.exit, label %4

4:                                                ; preds = %1
  %5 = load ptr, ptr @_loaded_interfaces, align 8
  %.not25.i = icmp eq ptr %5, null
  br i1 %.not25.i, label %6, label %8

6:                                                ; preds = %4
  %7 = tail call ptr @g_hash_table_new_full(ptr noundef nonnull @g_str_hash, ptr noundef nonnull @g_str_equal, ptr noundef nonnull @g_free, ptr noundef nonnull @extcap_free_interface)
  store ptr %7, ptr @_loaded_interfaces, align 8
  br label %8

8:                                                ; preds = %6, %4
  %9 = phi ptr [ %7, %6 ], [ %5, %4 ]
  %10 = tail call ptr @g_hash_table_lookup(ptr noundef %9, ptr noundef nonnull %0)
  br label %extcap_ensure_interface.exit

extcap_ensure_interface.exit:                     ; preds = %1, %8
  ret ptr null
}